target datalayout = "e-m:e-p270:32:32-p271:32:32-p272:64:64-i64:64-i128:128-f80:128-n8:16:32:64-S128"
target triple = "x86_64-pc-linux-gnu"

%struct.ALSA_Device = type { ptr, ptr, i8, ptr }

@ALSA_snd_pcm_info_sizeof = internal global ptr null, align 8
@ALSA_snd_pcm_info_get_subdevices_count = internal global ptr null, align 8
@ALSA_snd_pcm_info_set_device = internal global ptr null, align 8
@ALSA_snd_pcm_info_set_subdevice = internal global ptr null, align 8
@ALSA_snd_pcm_info_set_stream = internal global ptr null, align 8
@ALSA_snd_ctl_pcm_info = internal global ptr null, align 8
@ALSA_snd_ctl_card_info_get_id = internal global ptr null, align 8
@ALSA_snd_pcm_info_get_name = internal global ptr null, align 8
@ALSA_snd_ctl_card_info_get_name = internal global ptr null, align 8
@.str.74 = private unnamed_addr constant [6 x i8] c"%s:%s\00", align 1

; Function Attrs: nounwind uwtable
define internal i32 @hotplug_device_process(ptr noundef %0, ptr noundef %1, i32 noundef %2, i32 noundef %3, ptr noundef %4, ptr noundef %5) #0 {
  %7 = alloca i32, align 4
  %8 = alloca ptr, align 8
  %9 = alloca ptr, align 8
  %10 = alloca i32, align 4
  %11 = alloca i32, align 4
  %12 = alloca ptr, align 8
  %13 = alloca ptr, align 8
  %14 = alloca i32, align 4
  %15 = alloca i32, align 4
  %16 = alloca i8, align 1
  %17 = alloca i8, align 1
  %18 = alloca ptr, align 8
  %19 = alloca i32, align 4
  %20 = alloca i32, align 4
  %21 = alloca ptr, align 8
  %22 = alloca ptr, align 8
  store ptr %0, ptr %8, align 8
  store ptr %1, ptr %9, align 8
  store i32 %2, ptr %10, align 4
  store i32 %3, ptr %11, align 4
  store ptr %4, ptr %12, align 8
  store ptr %5, ptr %13, align 8
  call void @llvm.lifetime.start.p0(i64 4, ptr %14) #7
  store i32 1, ptr %14, align 4
  call void @llvm.lifetime.start.p0(i64 4, ptr %15) #7
  store i32 0, ptr %15, align 4
  call void @llvm.lifetime.start.p0(i64 1, ptr %16) #7
  %23 = load i32, ptr %11, align 4
  %24 = icmp eq i32 %23, 1
  %25 = select i1 %24, i32 1, i32 0
  %26 = icmp ne i32 %25, 0
  %27 = zext i1 %26 to i8
  store i8 %27, ptr %16, align 1
  call void @llvm.lifetime.start.p0(i64 1, ptr %17) #7
  call void @llvm.lifetime.start.p0(i64 8, ptr %18) #7
  %28 = load ptr, ptr @ALSA_snd_pcm_info_sizeof, align 8
  %29 = call i64 %28()
  %30 = mul i64 1, %29
  %31 = icmp ult i64 %30, 128
  %32 = zext i1 %31 to i8
  store i8 %32, ptr %17, align 1
  %33 = load i8, ptr %17, align 1, !range !3, !noundef !4
  %34 = trunc i8 %33 to i1
  br i1 %34, label %35, label %40

35:                                               ; preds = %6
  %36 = load ptr, ptr @ALSA_snd_pcm_info_sizeof, align 8
  %37 = call i64 %36()
  %38 = mul i64 1, %37
  %39 = alloca i8, i64 %38, align 16
  br label %45

40:                                               ; preds = %6
  %41 = load ptr, ptr @ALSA_snd_pcm_info_sizeof, align 8
  %42 = call i64 %41()
  %43 = mul i64 1, %42
  %44 = call noalias ptr @SDL_malloc_REAL(i64 noundef %43)
  br label %45

45:                                               ; preds = %40, %35
  %46 = phi ptr [ %39, %35 ], [ %44, %40 ]
  store ptr %46, ptr %18, align 8
  %47 = load ptr, ptr %18, align 8
  %48 = load ptr, ptr @ALSA_snd_pcm_info_sizeof, align 8
  %49 = call i64 %48()
  call void @llvm.memset.p0.i64(ptr align 1 %47, i8 0, i64 %49, i1 false)
  br label %50

50:                                               ; preds = %256, %45
  br label %51

51:                                               ; preds = %50
  %52 = load ptr, ptr @ALSA_snd_pcm_info_set_stream, align 8
  %53 = load ptr, ptr %18, align 8
  %54 = load i32, ptr %11, align 4
  call void %52(ptr noundef %53, i32 noundef %54)
  %55 = load ptr, ptr @ALSA_snd_pcm_info_set_device, align 8
  %56 = load ptr, ptr %18, align 8
  %57 = load i32, ptr %10, align 4
  call void %55(ptr noundef %56, i32 noundef %57)
  %58 = load ptr, ptr @ALSA_snd_pcm_info_set_subdevice, align 8
  %59 = load ptr, ptr %18, align 8
  %60 = load i32, ptr %15, align 4
  call void %58(ptr noundef %59, i32 noundef %60)
  call void @llvm.lifetime.start.p0(i64 4, ptr %19) #7
  %61 = load ptr, ptr @ALSA_snd_ctl_pcm_info, align 8
  %62 = load ptr, ptr %8, align 8
  %63 = load ptr, ptr %18, align 8
  %64 = call i32 %61(ptr noundef %62, ptr noundef %63)
  store i32 %64, ptr %19, align 4
  %65 = load i32, ptr %19, align 4
  %66 = icmp slt i32 %65, 0
  br i1 %66, label %67, label %81

67:                                               ; preds = %51
  %68 = load i8, ptr %17, align 1, !range !3, !noundef !4
  %69 = trunc i8 %68 to i1
  br i1 %69, label %70, label %71

70:                                               ; preds = %67
  br label %73

71:                                               ; preds = %67
  %72 = load ptr, ptr %18, align 8
  call void @SDL_free_REAL(ptr noundef %72)
  br label %73

73:                                               ; preds = %71, %70
  %74 = load i32, ptr %15, align 4
  %75 = icmp eq i32 %74, 0
  br i1 %75, label %76, label %80

76:                                               ; preds = %73
  %77 = load i32, ptr %19, align 4
  %78 = icmp eq i32 %77, -2
  br i1 %78, label %79, label %80

79:                                               ; preds = %76
  store i32 0, ptr %7, align 4
  store i32 1, ptr %20, align 4
  br label %254

80:                                               ; preds = %76, %73
  store i32 -1, ptr %7, align 4
  store i32 1, ptr %20, align 4
  br label %254

81:                                               ; preds = %51
  %82 = load i32, ptr %15, align 4
  %83 = icmp eq i32 %82, 0
  br i1 %83, label %84, label %88

84:                                               ; preds = %81
  %85 = load ptr, ptr @ALSA_snd_pcm_info_get_subdevices_count, align 8
  %86 = load ptr, ptr %18, align 8
  %87 = call i32 %85(ptr noundef %86)
  store i32 %87, ptr %14, align 4
  br label %88

88:                                               ; preds = %84, %81
  call void @llvm.lifetime.start.p0(i64 8, ptr %21) #7
  store ptr null, ptr %21, align 8
  call void @llvm.lifetime.start.p0(i64 8, ptr %22) #7
  %89 = load ptr, ptr %12, align 8
  %90 = load ptr, ptr %89, align 8
  store ptr %90, ptr %22, align 8
  br label %91

91:                                               ; preds = %138, %88
  %92 = load ptr, ptr %22, align 8
  %93 = icmp ne ptr %92, null
  br i1 %93, label %94, label %142

94:                                               ; preds = %91
  %95 = load ptr, ptr %22, align 8
  %96 = getelementptr inbounds nuw %struct.ALSA_Device, ptr %95, i32 0, i32 0
  %97 = load ptr, ptr %96, align 8
  %98 = load ptr, ptr @ALSA_snd_ctl_card_info_get_id, align 8
  %99 = load ptr, ptr %9, align 8
  %100 = call ptr %98(ptr noundef %99)
  %101 = call i32 @SDL_strcmp_REAL(ptr noundef %97, ptr noundef %100)
  %102 = icmp eq i32 %101, 0
  br i1 %102, label %103, label %136

103:                                              ; preds = %94
  %104 = load ptr, ptr %22, align 8
  %105 = getelementptr inbounds nuw %struct.ALSA_Device, ptr %104, i32 0, i32 2
  %106 = load i8, ptr %105, align 8, !range !3, !noundef !4
  %107 = trunc i8 %106 to i1
  %108 = zext i1 %107 to i32
  %109 = load i8, ptr %16, align 1, !range !3, !noundef !4
  %110 = trunc i8 %109 to i1
  %111 = zext i1 %110 to i32
  %112 = icmp eq i32 %108, %111
  br i1 %112, label %113, label %136

113:                                              ; preds = %103
  %114 = load ptr, ptr %12, align 8
  %115 = load ptr, ptr %114, align 8
  %116 = load ptr, ptr %22, align 8
  %117 = icmp eq ptr %115, %116
  br i1 %117, label %118, label %123

118:                                              ; preds = %113
  %119 = load ptr, ptr %22, align 8
  %120 = getelementptr inbounds nuw %struct.ALSA_Device, ptr %119, i32 0, i32 3
  %121 = load ptr, ptr %120, align 8
  %122 = load ptr, ptr %12, align 8
  store ptr %121, ptr %122, align 8
  br label %129

123:                                              ; preds = %113
  %124 = load ptr, ptr %22, align 8
  %125 = getelementptr inbounds nuw %struct.ALSA_Device, ptr %124, i32 0, i32 3
  %126 = load ptr, ptr %125, align 8
  %127 = load ptr, ptr %21, align 8
  %128 = getelementptr inbounds nuw %struct.ALSA_Device, ptr %127, i32 0, i32 3
  store ptr %126, ptr %128, align 8
  br label %129

129:                                              ; preds = %123, %118
  %130 = load ptr, ptr %13, align 8
  %131 = load ptr, ptr %130, align 8
  %132 = load ptr, ptr %22, align 8
  %133 = getelementptr inbounds nuw %struct.ALSA_Device, ptr %132, i32 0, i32 3
  store ptr %131, ptr %133, align 8
  %134 = load ptr, ptr %22, align 8
  %135 = load ptr, ptr %13, align 8
  store ptr %134, ptr %135, align 8
  br label %142

136:                                              ; preds = %103, %94
  %137 = load ptr, ptr %22, align 8
  store ptr %137, ptr %21, align 8
  br label %138

138:                                              ; preds = %136
  %139 = load ptr, ptr %22, align 8
  %140 = getelementptr inbounds nuw %struct.ALSA_Device, ptr %139, i32 0, i32 3
  %141 = load ptr, ptr %140, align 8
  store ptr %141, ptr %22, align 8
  br label %91, !llvm.loop !16

142:                                              ; preds = %129, %91
  %143 = load ptr, ptr %22, align 8
  %144 = icmp eq ptr %143, null
  br i1 %144, label %145, label %236

145:                                              ; preds = %142
  %146 = call noalias ptr @SDL_calloc_REAL(i64 noundef 1, i64 noundef 32) #8
  store ptr %146, ptr %22, align 8
  %147 = load ptr, ptr %22, align 8
  %148 = icmp eq ptr %147, null
  br i1 %148, label %149, label %156

149:                                              ; preds = %145
  %150 = load i8, ptr %17, align 1, !range !3, !noundef !4
  %151 = trunc i8 %150 to i1
  br i1 %151, label %152, label %153

152:                                              ; preds = %149
  br label %155

153:                                              ; preds = %149
  %154 = load ptr, ptr %18, align 8
  call void @SDL_free_REAL(ptr noundef %154)
  br label %155

155:                                              ; preds = %153, %152
  store i32 -1, ptr %7, align 4
  store i32 1, ptr %20, align 4
  br label %253

156:                                              ; preds = %145
  %157 = load ptr, ptr @ALSA_snd_ctl_card_info_get_id, align 8
  %158 = load ptr, ptr %9, align 8
  %159 = call ptr %157(ptr noundef %158)
  %160 = call noalias ptr @SDL_strdup_REAL(ptr noundef %159)
  %161 = load ptr, ptr %22, align 8
  %162 = getelementptr inbounds nuw %struct.ALSA_Device, ptr %161, i32 0, i32 0
  store ptr %160, ptr %162, align 8
  %163 = load ptr, ptr %22, align 8
  %164 = getelementptr inbounds nuw %struct.ALSA_Device, ptr %163, i32 0, i32 0
  %165 = load ptr, ptr %164, align 8
  %166 = icmp eq ptr %165, null
  br i1 %166, label %167, label %175

167:                                              ; preds = %156
  %168 = load i8, ptr %17, align 1, !range !3, !noundef !4
  %169 = trunc i8 %168 to i1
  br i1 %169, label %170, label %171

170:                                              ; preds = %167
  br label %173

171:                                              ; preds = %167
  %172 = load ptr, ptr %18, align 8
  call void @SDL_free_REAL(ptr noundef %172)
  br label %173

173:                                              ; preds = %171, %170
  %174 = load ptr, ptr %22, align 8
  call void @SDL_free_REAL(ptr noundef %174)
  store i32 -1, ptr %7, align 4
  store i32 1, ptr %20, align 4
  br label %253

175:                                              ; preds = %156
  %176 = load ptr, ptr %22, align 8
  %177 = getelementptr inbounds nuw %struct.ALSA_Device, ptr %176, i32 0, i32 1
  %178 = load ptr, ptr @ALSA_snd_ctl_card_info_get_name, align 8
  %179 = load ptr, ptr %9, align 8
  %180 = call ptr %178(ptr noundef %179)
  %181 = load ptr, ptr @ALSA_snd_pcm_info_get_name, align 8
  %182 = load ptr, ptr %18, align 8
  %183 = call ptr %181(ptr noundef %182)
  %184 = call i32 (ptr, ptr, ...) @SDL_asprintf_REAL(ptr noundef %177, ptr noundef @.str.74, ptr noundef %180, ptr noundef %183)
  %185 = icmp eq i32 %184, -1
  br i1 %185, label %186, label %197

186:                                              ; preds = %175
  %187 = load i8, ptr %17, align 1, !range !3, !noundef !4
  %188 = trunc i8 %187 to i1
  br i1 %188, label %189, label %190

189:                                              ; preds = %186
  br label %192

190:                                              ; preds = %186
  %191 = load ptr, ptr %18, align 8
  call void @SDL_free_REAL(ptr noundef %191)
  br label %192

192:                                              ; preds = %190, %189
  %193 = load ptr, ptr %22, align 8
  %194 = getelementptr inbounds nuw %struct.ALSA_Device, ptr %193, i32 0, i32 0
  %195 = load ptr, ptr %194, align 8
  call void @SDL_free_REAL(ptr noundef %195)
  %196 = load ptr, ptr %22, align 8
  call void @SDL_free_REAL(ptr noundef %196)
  store i32 -1, ptr %7, align 4
  store i32 1, ptr %20, align 4
  br label %253

197:                                              ; preds = %175
  %198 = load i32, ptr %11, align 4
  %199 = icmp eq i32 %198, 1
  br i1 %199, label %200, label %203

200:                                              ; preds = %197
  %201 = load ptr, ptr %22, align 8
  %202 = getelementptr inbounds nuw %struct.ALSA_Device, ptr %201, i32 0, i32 2
  store i8 1, ptr %202, align 8
  br label %206

203:                                              ; preds = %197
  %204 = load ptr, ptr %22, align 8
  %205 = getelementptr inbounds nuw %struct.ALSA_Device, ptr %204, i32 0, i32 2
  store i8 0, ptr %205, align 8
  br label %206

206:                                              ; preds = %203, %200
  %207 = load i8, ptr %16, align 1, !range !3, !noundef !4
  %208 = trunc i8 %207 to i1
  %209 = load ptr, ptr %22, align 8
  %210 = getelementptr inbounds nuw %struct.ALSA_Device, ptr %209, i32 0, i32 1
  %211 = load ptr, ptr %210, align 8
  %212 = load ptr, ptr %22, align 8
  %213 = call ptr @SDL_AddAudioDevice(i1 noundef zeroext %208, ptr noundef %211, ptr noundef null, ptr noundef %212)
  %214 = icmp eq ptr %213, null
  br i1 %214, label %215, label %229

215:                                              ; preds = %206
  %216 = load i8, ptr %17, align 1, !range !3, !noundef !4
  %217 = trunc i8 %216 to i1
  br i1 %217, label %218, label %219

218:                                              ; preds = %215
  br label %221

219:                                              ; preds = %215
  %220 = load ptr, ptr %18, align 8
  call void @SDL_free_REAL(ptr noundef %220)
  br label %221

221:                                              ; preds = %219, %218
  %222 = load ptr, ptr %22, align 8
  %223 = getelementptr inbounds nuw %struct.ALSA_Device, ptr %222, i32 0, i32 0
  %224 = load ptr, ptr %223, align 8
  call void @SDL_free_REAL(ptr noundef %224)
  %225 = load ptr, ptr %22, align 8
  %226 = getelementptr inbounds nuw %struct.ALSA_Device, ptr %225, i32 0, i32 1
  %227 = load ptr, ptr %226, align 8
  call void @SDL_free_REAL(ptr noundef %227)
  %228 = load ptr, ptr %22, align 8
  call void @SDL_free_REAL(ptr noundef %228)
  store i32 -1, ptr %7, align 4
  store i32 1, ptr %20, align 4
  br label %253

229:                                              ; preds = %206
  %230 = load ptr, ptr %13, align 8
  %231 = load ptr, ptr %230, align 8
  %232 = load ptr, ptr %22, align 8
  %233 = getelementptr inbounds nuw %struct.ALSA_Device, ptr %232, i32 0, i32 3
  store ptr %231, ptr %233, align 8
  %234 = load ptr, ptr %22, align 8
  %235 = load ptr, ptr %13, align 8
  store ptr %234, ptr %235, align 8
  br label %236

236:                                              ; preds = %229, %142
  %237 = load i32, ptr %15, align 4
  %238 = add i32 %237, 1
  store i32 %238, ptr %15, align 4
  %239 = load i32, ptr %15, align 4
  %240 = load i32, ptr %14, align 4
  %241 = icmp eq i32 %239, %240
  br i1 %241, label %242, label %249

242:                                              ; preds = %236
  %243 = load i8, ptr %17, align 1, !range !3, !noundef !4
  %244 = trunc i8 %243 to i1
  br i1 %244, label %245, label %246

245:                                              ; preds = %242
  br label %248

246:                                              ; preds = %242
  %247 = load ptr, ptr %18, align 8
  call void @SDL_free_REAL(ptr noundef %247)
  br label %248

248:                                              ; preds = %246, %245
  store i32 0, ptr %7, align 4
  store i32 1, ptr %20, align 4
  br label %253

249:                                              ; preds = %236
  %250 = load ptr, ptr %18, align 8
  %251 = load ptr, ptr @ALSA_snd_pcm_info_sizeof, align 8
  %252 = call i64 %251()
  call void @llvm.memset.p0.i64(ptr align 1 %250, i8 0, i64 %252, i1 false)
  store i32 0, ptr %20, align 4
  br label %253

253:                                              ; preds = %249, %248, %221, %192, %173, %155
  call void @llvm.lifetime.end.p0(i64 8, ptr %22) #7
  call void @llvm.lifetime.end.p0(i64 8, ptr %21) #7
  br label %254

254:                                              ; preds = %253, %80, %79
  call void @llvm.lifetime.end.p0(i64 4, ptr %19) #7
  %255 = load i32, ptr %20, align 4
  switch i32 %255, label %257 [
    i32 0, label %256
  ]

256:                                              ; preds = %254
  br label %50

257:                                              ; preds = %254
  call void @llvm.lifetime.end.p0(i64 8, ptr %18) #7
  call void @llvm.lifetime.end.p0(i64 1, ptr %17) #7
  call void @llvm.lifetime.end.p0(i64 1, ptr %16) #7
  call void @llvm.lifetime.end.p0(i64 4, ptr %15) #7
  call void @llvm.lifetime.end.p0(i64 4, ptr %14) #7
  %258 = load i32, ptr %7, align 4
  ret i32 %258
}