; Function Attrs: nounwind uwtable
define internal fastcc range(i32 -1, 1) i32 @hotplug_device_process(ptr noundef %0, ptr noundef nonnull %1, i32 noundef %2, i32 noundef range(i32 0, 2) %3, ptr noundef nonnull captures(none) %4, ptr noundef nonnull captures(none) %5) unnamed_addr #0 {
  %7 = icmp ne i32 %3, 0
  %8 = load ptr, ptr @ALSA_snd_pcm_info_sizeof, align 8
  %9 = tail call i64 %8() #8
  %10 = icmp ult i64 %9, 128
  %11 = load ptr, ptr @ALSA_snd_pcm_info_sizeof, align 8
  %12 = tail call i64 %11() #8
  br i1 %10, label %13, label %15

13:                                               ; preds = %6
  %14 = alloca i8, i64 %12, align 16
  br label %17

15:                                               ; preds = %6
  %16 = tail call noalias ptr @SDL_malloc_REAL(i64 noundef %12) #8
  br label %17

17:                                               ; preds = %15, %13
  %18 = phi ptr [ %14, %13 ], [ %16, %15 ]
  %19 = load ptr, ptr @ALSA_snd_pcm_info_sizeof, align 8
  %20 = tail call i64 %19() #8
  %spec.select = trunc nuw nsw i32 %3 to i8
  br label %21

21:                                               ; preds = %100, %17
  %.sink154 = phi i64 [ %102, %100 ], [ %20, %17 ]
  %.083 = phi i32 [ %96, %100 ], [ 0, %17 ]
  %.080 = phi i32 [ %.282, %100 ], [ 1, %17 ]
  call void @llvm.memset.p0.i64(ptr align 1 %18, i8 0, i64 %.sink154, i1 false)
  %22 = load ptr, ptr @ALSA_snd_pcm_info_set_stream, align 8
  call void %22(ptr noundef %18, i32 noundef %3) #8
  %23 = load ptr, ptr @ALSA_snd_pcm_info_set_device, align 8
  call void %23(ptr noundef %18, i32 noundef %2) #8
  %24 = load ptr, ptr @ALSA_snd_pcm_info_set_subdevice, align 8
  call void %24(ptr noundef %18, i32 noundef %.083) #8
  %25 = load ptr, ptr @ALSA_snd_ctl_pcm_info, align 8
  %26 = call i32 %25(ptr noundef %0, ptr noundef %18) #8
  %27 = icmp slt i32 %26, 0
  br i1 %27, label %28, label %33

28:                                               ; preds = %21
  br i1 %10, label %30, label %29

29:                                               ; preds = %28
  call void @SDL_free_REAL(ptr noundef %18) #8
  br label %30

30:                                               ; preds = %28, %29
  %31 = icmp ne i32 %.083, 0
  %32 = icmp ne i32 %26, -2
  %or.cond.not = or i1 %31, %32
  %. = sext i1 %or.cond.not to i32
  br label %103

33:                                               ; preds = %21
  %34 = icmp eq i32 %.083, 0
  br i1 %34, label %35, label %38

35:                                               ; preds = %33
  %36 = load ptr, ptr @ALSA_snd_pcm_info_get_subdevices_count, align 8
  %37 = call i32 %36(ptr noundef %18) #8
  br label %38

38:                                               ; preds = %35, %33
  %.282 = phi i32 [ %37, %35 ], [ %.080, %33 ]
  %.0114 = load ptr, ptr %4, align 8
  %cond115 = icmp eq ptr %.0114, null
  br i1 %cond115, label %._crit_edge, label %.lr.ph

.lr.ph:                                           ; preds = %38, %57
  %.0117 = phi ptr [ %.0, %57 ], [ %.0114, %38 ]
  %.076116 = phi ptr [ %.0117, %57 ], [ null, %38 ]
  %39 = load ptr, ptr %.0117, align 8
  %40 = load ptr, ptr @ALSA_snd_ctl_card_info_get_id, align 8
  %41 = call ptr %40(ptr noundef nonnull %1) #8
  %42 = call i32 @SDL_strcmp_REAL(ptr noundef %39, ptr noundef %41) #8
  %43 = icmp eq i32 %42, 0
  br i1 %43, label %44, label %57

44:                                               ; preds = %.lr.ph
  %45 = getelementptr inbounds nuw i8, ptr %.0117, i64 16
  %46 = load i8, ptr %45, align 8, !range !6, !noundef !7
  %47 = zext nneg i8 %46 to i32
  %48 = icmp eq i32 %3, %47
  br i1 %48, label %49, label %57

49:                                               ; preds = %44
  %50 = load ptr, ptr %4, align 8
  %51 = icmp eq ptr %50, %.0117
  %52 = getelementptr inbounds nuw i8, ptr %.0117, i64 24
  %53 = load ptr, ptr %52, align 8
  br i1 %51, label %54, label %55

54:                                               ; preds = %49
  store ptr %53, ptr %4, align 8
  br label %93

55:                                               ; preds = %49
  %56 = getelementptr inbounds nuw i8, ptr %.076116, i64 24
  store ptr %53, ptr %56, align 8
  br label %93

57:                                               ; preds = %44, %.lr.ph
  %58 = getelementptr inbounds nuw i8, ptr %.0117, i64 24
  %.0 = load ptr, ptr %58, align 8
  %cond = icmp eq ptr %.0, null
  br i1 %cond, label %._crit_edge, label %.lr.ph, !llvm.loop !16

._crit_edge:                                      ; preds = %57, %38
  %59 = call noalias dereferenceable_or_null(32) ptr @SDL_calloc_REAL(i64 noundef 1, i64 noundef 32) #9
  %60 = icmp eq ptr %59, null
  br i1 %60, label %61, label %63

61:                                               ; preds = %._crit_edge
  br i1 %10, label %103, label %62

62:                                               ; preds = %61
  call void @SDL_free_REAL(ptr noundef %18) #8
  br label %103

63:                                               ; preds = %._crit_edge
  %64 = load ptr, ptr @ALSA_snd_ctl_card_info_get_id, align 8
  %65 = call ptr %64(ptr noundef nonnull %1) #8
  %66 = call noalias ptr @SDL_strdup_REAL(ptr noundef %65) #8
  store ptr %66, ptr %59, align 8
  %67 = icmp eq ptr %66, null
  br i1 %67, label %68, label %71

68:                                               ; preds = %63
  br i1 %10, label %70, label %69

69:                                               ; preds = %68
  call void @SDL_free_REAL(ptr noundef %18) #8
  br label %70

70:                                               ; preds = %68, %69
  call void @SDL_free_REAL(ptr noundef nonnull %59) #8
  br label %103

71:                                               ; preds = %63
  %72 = getelementptr inbounds nuw i8, ptr %59, i64 8
  %73 = load ptr, ptr @ALSA_snd_ctl_card_info_get_name, align 8
  %74 = call ptr %73(ptr noundef nonnull %1) #8
  %75 = load ptr, ptr @ALSA_snd_pcm_info_get_name, align 8
  %76 = call ptr %75(ptr noundef %18) #8
  %77 = call i32 (ptr, ptr, ...) @SDL_asprintf_REAL(ptr noundef nonnull %72, ptr noundef nonnull @.str.74, ptr noundef %74, ptr noundef %76) #8
  %78 = icmp eq i32 %77, -1
  br i1 %78, label %79, label %83

79:                                               ; preds = %71
  br i1 %10, label %81, label %80

80:                                               ; preds = %79
  call void @SDL_free_REAL(ptr noundef %18) #8
  br label %81

81:                                               ; preds = %79, %80
  %82 = load ptr, ptr %59, align 8
  call void @SDL_free_REAL(ptr noundef %82) #8
  call void @SDL_free_REAL(ptr noundef nonnull %59) #8
  br label %103

83:                                               ; preds = %71
  %84 = getelementptr inbounds nuw i8, ptr %59, i64 16
  store i8 %spec.select, ptr %84, align 8
  %85 = load ptr, ptr %72, align 8
  %86 = call ptr @SDL_AddAudioDevice(i1 noundef zeroext %7, ptr noundef %85, ptr noundef null, ptr noundef nonnull %59) #8
  %87 = icmp eq ptr %86, null
  br i1 %87, label %88, label %93

88:                                               ; preds = %83
  br i1 %10, label %90, label %89

89:                                               ; preds = %88
  call void @SDL_free_REAL(ptr noundef %18) #8
  br label %90

90:                                               ; preds = %88, %89
  %91 = load ptr, ptr %59, align 8
  call void @SDL_free_REAL(ptr noundef %91) #8
  %92 = load ptr, ptr %72, align 8
  call void @SDL_free_REAL(ptr noundef %92) #8
  call void @SDL_free_REAL(ptr noundef nonnull %59) #8
  br label %103

93:                                               ; preds = %83, %54, %55
  %.0117.lcssa.sink = phi ptr [ %.0117, %55 ], [ %.0117, %54 ], [ %59, %83 ]
  %94 = load ptr, ptr %5, align 8
  %95 = getelementptr inbounds nuw i8, ptr %.0117.lcssa.sink, i64 24
  store ptr %94, ptr %95, align 8
  store ptr %.0117.lcssa.sink, ptr %5, align 8
  %96 = add i32 %.083, 1
  %97 = icmp eq i32 %96, %.282
  br i1 %97, label %98, label %100

98:                                               ; preds = %93
  br i1 %10, label %103, label %99

99:                                               ; preds = %98
  call void @SDL_free_REAL(ptr noundef %18) #8
  br label %103

100:                                              ; preds = %93
  %101 = load ptr, ptr @ALSA_snd_pcm_info_sizeof, align 8
  %102 = call i64 %101() #8
  br label %21

103:                                              ; preds = %30, %70, %81, %90, %61, %62, %98, %99
  %.179.ph = phi i32 [ 0, %99 ], [ 0, %98 ], [ -1, %62 ], [ -1, %61 ], [ -1, %90 ], [ -1, %81 ], [ -1, %70 ], [ %., %30 ]
  ret i32 %.179.ph
}